; Function Attrs: mustprogress nounwind uwtable
define internal void @_ZN5faiss12_GLOBAL__N_114IVFSQScannerIPINS0_20DistanceComputerByteINS0_12SimilarityIPILi1EEELi1EEELi0EED2Ev(ptr nocapture noundef nonnull align 8 dereferenceable(112) %0) unnamed_addr #1 align 2 personality ptr @__gxx_personality_v0 {
  store ptr getelementptr inbounds ({ [11 x ptr] }, ptr @_ZTVN5faiss12_GLOBAL__N_114IVFSQScannerIPINS0_20DistanceComputerByteINS0_12SimilarityIPILi1EEELi1EEELi0EEE, i64 0, i32 0, i64 2), ptr %0, align 8
  %2 = getelementptr inbounds i8, ptr %0, i64 40
  store ptr getelementptr inbounds ({ [10 x ptr] }, ptr @_ZTVN5faiss12_GLOBAL__N_120DistanceComputerByteINS0_12SimilarityIPILi1EEELi1EEE, i64 0, i32 0, i64 2), ptr %2, align 8
  %3 = getelementptr inbounds i8, ptr %0, i64 80
  %4 = load ptr, ptr %3, align 8
  %.not.i.i.i.i = icmp eq ptr %4, null
  br i1 %.not.i.i.i.i, label %_ZN5faiss12_GLOBAL__N_120DistanceComputerByteINS0_12SimilarityIPILi1EEELi1EED2Ev.exit, label %5

5:                                                ; preds = %1
  tail call void @_ZdlPv(ptr noundef nonnull %4) #27
  br label %_ZN5faiss12_GLOBAL__N_120DistanceComputerByteINS0_12SimilarityIPILi1EEELi1EED2Ev.exit

_ZN5faiss12_GLOBAL__N_120DistanceComputerByteINS0_12SimilarityIPILi1EEELi1EED2Ev.exit: ; preds = %1, %5
  ret void
}